target datalayout = "e-m:e-p270:32:32-p271:32:32-p272:64:64-i64:64-i128:128-f80:128-n8:16:32:64-S128"
target triple = "x86_64-pc-linux-gnu"

%class.LogTargetHandle = type { i32, ptr }
%class.stringStream = type <{ %class.outputStream, ptr, i64, i64, i8, [48 x i8], [7 x i8] }>
%class.outputStream = type { ptr, i32, i8, i32, i64, %class.TimeStamp, ptr, i64 }
%class.TimeStamp = type { i64 }

@_ZN13GCLogPrecious6_linesE = hidden global ptr null, align 8
@_ZN13GCLogPrecious5_tempE = hidden global ptr null, align 8
@.str.4 = private unnamed_addr constant [4 x i8] c" %s\00", align 1
@.str.5 = private unnamed_addr constant [3 x i8] c"%s\00", align 1

; Function Attrs: mustprogress nounwind uwtable
define linkonce_odr hidden noundef ptr @_ZNK12stringStream4baseEv(ptr noundef nonnull align 8 dereferenceable(129) %0) #1 comdat align 2 {
  %2 = alloca ptr, align 8
  store ptr %0, ptr %2, align 8
  %3 = load ptr, ptr %2, align 8
  %4 = getelementptr inbounds %class.stringStream, ptr %3, i32 0, i32 1
  %5 = load ptr, ptr %4, align 8
  ret ptr %5
}

; Function Attrs: mustprogress nounwind uwtable
define hidden void @_ZN13GCLogPrecious12vwrite_innerE15LogTargetHandlePKcP13__va_list_tag(i32 %0, ptr %1, ptr noundef %2, ptr noundef %3) #1 align 2 {
  %5 = alloca %class.LogTargetHandle, align 8
  %6 = alloca ptr, align 8
  %7 = alloca ptr, align 8
  %8 = getelementptr inbounds { i32, ptr }, ptr %5, i32 0, i32 0
  store i32 %0, ptr %8, align 8
  %9 = getelementptr inbounds { i32, ptr }, ptr %5, i32 0, i32 1
  store ptr %1, ptr %9, align 8
  store ptr %2, ptr %6, align 8
  store ptr %3, ptr %7, align 8
  %10 = load ptr, ptr @_ZN13GCLogPrecious5_tempE, align 8
  call void @_ZN12stringStream5resetEv(ptr noundef nonnull align 8 dereferenceable(129) %10)
  %11 = load ptr, ptr @_ZN13GCLogPrecious5_tempE, align 8
  %12 = load ptr, ptr %6, align 8
  %13 = load ptr, ptr %7, align 8
  call void @_ZN12outputStream6vprintEPKcP13__va_list_tag(ptr noundef nonnull align 8 dereferenceable(56) %11, ptr noundef %12, ptr noundef %13)
  %14 = load ptr, ptr @_ZN13GCLogPrecious6_linesE, align 8
  %15 = load ptr, ptr @_ZN13GCLogPrecious5_tempE, align 8
  %16 = call noundef ptr @_ZNK12stringStream4baseEv(ptr noundef nonnull align 8 dereferenceable(129) %15)
  call void (ptr, ptr, ...) @_ZN12outputStream8print_crEPKcz(ptr noundef nonnull align 8 dereferenceable(56) %14, ptr noundef @.str.4, ptr noundef %16)
  %17 = load ptr, ptr @_ZN13GCLogPrecious5_tempE, align 8
  %18 = call noundef ptr @_ZNK12stringStream4baseEv(ptr noundef nonnull align 8 dereferenceable(129) %17)
  call void (ptr, ptr, ...) @_ZN15LogTargetHandle5printEPKcz(ptr noundef nonnull align 8 dereferenceable(16) %5, ptr noundef @.str.5, ptr noundef %18)
  ret void
}