; Function Attrs: mustprogress nounwind uwtable
define hidden void @_ZN13GCLogPrecious12vwrite_innerE15LogTargetHandlePKcP13__va_list_tag(i32 %0, ptr %1, ptr noundef %2, ptr noundef %3) local_unnamed_addr #0 align 2 {
  %5 = alloca %class.LogTargetHandle, align 8
  store i32 %0, ptr %5, align 8
  %6 = getelementptr inbounds i8, ptr %5, i64 8
  store ptr %1, ptr %6, align 8
  %7 = load ptr, ptr @_ZN13GCLogPrecious5_tempE, align 8
  tail call void @_ZN12stringStream5resetEv(ptr noundef nonnull align 8 dereferenceable(129) %7) #4
  %8 = load ptr, ptr @_ZN13GCLogPrecious5_tempE, align 8
  tail call void @_ZN12outputStream6vprintEPKcP13__va_list_tag(ptr noundef nonnull align 8 dereferenceable(56) %8, ptr noundef %2, ptr noundef %3) #4
  %9 = load ptr, ptr @_ZN13GCLogPrecious6_linesE, align 8
  %10 = load ptr, ptr @_ZN13GCLogPrecious5_tempE, align 8
  %11 = getelementptr inbounds i8, ptr %10, i64 56
  %12 = load ptr, ptr %11, align 8
  tail call void (ptr, ptr, ...) @_ZN12outputStream8print_crEPKcz(ptr noundef nonnull align 8 dereferenceable(56) %9, ptr noundef nonnull @.str.4, ptr noundef %12) #4
  %13 = load ptr, ptr @_ZN13GCLogPrecious5_tempE, align 8
  %14 = getelementptr inbounds i8, ptr %13, i64 56
  %15 = load ptr, ptr %14, align 8
  call void (ptr, ptr, ...) @_ZN15LogTargetHandle5printEPKcz(ptr noundef nonnull align 8 dereferenceable(16) %5, ptr noundef nonnull @.str.5, ptr noundef %15)
  ret void
}